; Function Attrs: nounwind uwtable
define zeroext range(i8 0, 2) i8 @l_Array_isEqvAux___at_Lean_Meta_DiscrTree_insertIfSpecific___spec__2(ptr readnone captures(none) %0, ptr readnone captures(none) %1, ptr noundef readonly captures(none) %2, ptr noundef readonly captures(none) %3, ptr noundef %4, ptr readnone captures(none) %5) local_unnamed_addr #2 {
  %7 = getelementptr inbounds nuw i8, ptr %2, i64 24
  %8 = getelementptr inbounds nuw i8, ptr %3, i64 24
  br label %lean_dec.exit26

lean_dec.exit26:                                  ; preds = %lean_dec.exit27, %6
  %.023 = phi ptr [ %4, %6 ], [ %.1.i45, %lean_dec.exit27 ]
  %9 = ptrtoint ptr %.023 to i64
  %10 = and i64 %9, 1
  %.not = icmp eq i64 %10, 0
  br i1 %.not, label %lean_nat_eq.exit.thread, label %lean_nat_eq.exit, !prof !13

lean_nat_eq.exit:                                 ; preds = %lean_dec.exit26
  %.not53 = icmp eq ptr %.023, inttoptr (i64 1 to ptr)
  br i1 %.not53, label %.loopexit, label %12

lean_nat_eq.exit.thread:                          ; preds = %lean_dec.exit26
  %11 = tail call zeroext i1 @lean_nat_big_eq(ptr noundef %.023, ptr noundef nonnull inttoptr (i64 1 to ptr)) #7
  br i1 %11, label %.thread46, label %.thread

12:                                               ; preds = %lean_nat_eq.exit
  %13 = icmp ult ptr %.023, inttoptr (i64 2 to ptr)
  br i1 %13, label %lean_dec.exit29, label %14

14:                                               ; preds = %12
  %15 = add i64 %9, -2
  %16 = inttoptr i64 %15 to ptr
  br label %lean_dec.exit29

.thread:                                          ; preds = %lean_nat_eq.exit.thread
  %17 = tail call ptr @lean_nat_big_sub(ptr noundef %.023, ptr noundef nonnull inttoptr (i64 3 to ptr)) #7
  %18 = load i32, ptr %.023, align 4, !tbaa !4
  %19 = icmp sgt i32 %18, 1
  br i1 %19, label %20, label %22, !prof !11

20:                                               ; preds = %.thread
  %21 = add nsw i32 %18, -1
  store i32 %21, ptr %.023, align 4, !tbaa !4
  br label %lean_dec.exit29

22:                                               ; preds = %.thread
  %.not.i = icmp eq i32 %18, 0
  br i1 %.not.i, label %lean_dec.exit29, label %23

23:                                               ; preds = %22
  tail call void @lean_dec_ref_cold(ptr noundef nonnull %.023) #7
  br label %lean_dec.exit29

lean_dec.exit29:                                  ; preds = %14, %12, %23, %22, %20
  %.1.i45 = phi ptr [ %17, %20 ], [ %17, %22 ], [ %17, %23 ], [ inttoptr (i64 1 to ptr), %12 ], [ %16, %14 ]
  %24 = ptrtoint ptr %.1.i45 to i64
  %25 = lshr i64 %24, 1
  %26 = getelementptr inbounds nuw [0 x ptr], ptr %7, i64 0, i64 %25
  %27 = load ptr, ptr %26, align 8, !tbaa !9
  %28 = ptrtoint ptr %27 to i64
  %29 = and i64 %28, 1
  %.not.i.i = icmp eq i64 %29, 0
  br i1 %.not.i.i, label %30, label %lean_array_fget.exit

30:                                               ; preds = %lean_dec.exit29
  %.val.i.i.i = load i32, ptr %27, align 4, !tbaa !4
  %31 = icmp sgt i32 %.val.i.i.i, 0
  br i1 %31, label %32, label %34, !prof !11

32:                                               ; preds = %30
  %33 = add nuw i32 %.val.i.i.i, 1
  store i32 %33, ptr %27, align 4, !tbaa !4
  br label %lean_array_fget.exit

34:                                               ; preds = %30
  %.not.i.i.i = icmp eq i32 %.val.i.i.i, 0
  br i1 %.not.i.i.i, label %lean_array_fget.exit, label %35

35:                                               ; preds = %34
  tail call void @lean_inc_ref_cold(ptr noundef nonnull %27) #7
  br label %lean_array_fget.exit

lean_array_fget.exit:                             ; preds = %lean_dec.exit29, %32, %34, %35
  %36 = getelementptr inbounds nuw [0 x ptr], ptr %8, i64 0, i64 %25
  %37 = load ptr, ptr %36, align 8, !tbaa !9
  %38 = ptrtoint ptr %37 to i64
  %39 = and i64 %38, 1
  %.not.i.i39 = icmp eq i64 %39, 0
  br i1 %.not.i.i39, label %40, label %lean_array_fget.exit42

40:                                               ; preds = %lean_array_fget.exit
  %.val.i.i.i40 = load i32, ptr %37, align 4, !tbaa !4
  %41 = icmp sgt i32 %.val.i.i.i40, 0
  br i1 %41, label %42, label %44, !prof !11

42:                                               ; preds = %40
  %43 = add nuw i32 %.val.i.i.i40, 1
  store i32 %43, ptr %37, align 4, !tbaa !4
  br label %47

44:                                               ; preds = %40
  %.not.i.i.i41 = icmp eq i32 %.val.i.i.i40, 0
  br i1 %.not.i.i.i41, label %47, label %45

45:                                               ; preds = %44
  tail call void @lean_inc_ref_cold(ptr noundef nonnull %37) #7
  br label %47

lean_array_fget.exit42:                           ; preds = %lean_array_fget.exit
  %46 = tail call zeroext i8 @l_Lean_Meta_DiscrTree_beqKey____x40_Lean_Meta_DiscrTreeTypes___hyg_102_(ptr noundef %27, ptr noundef %37) #7
  br label %lean_dec.exit28

47:                                               ; preds = %42, %44, %45
  %48 = tail call zeroext i8 @l_Lean_Meta_DiscrTree_beqKey____x40_Lean_Meta_DiscrTreeTypes___hyg_102_(ptr noundef %27, ptr noundef nonnull %37) #7
  %49 = load i32, ptr %37, align 4, !tbaa !4
  %50 = icmp sgt i32 %49, 1
  br i1 %50, label %51, label %53, !prof !11

51:                                               ; preds = %47
  %52 = add nsw i32 %49, -1
  store i32 %52, ptr %37, align 4, !tbaa !4
  br label %lean_dec.exit28

53:                                               ; preds = %47
  %.not.i30 = icmp eq i32 %49, 0
  br i1 %.not.i30, label %lean_dec.exit28, label %54

54:                                               ; preds = %53
  tail call void @lean_dec_ref_cold(ptr noundef nonnull %37) #7
  br label %lean_dec.exit28

lean_dec.exit28:                                  ; preds = %54, %53, %51, %lean_array_fget.exit42
  %55 = phi i8 [ %46, %lean_array_fget.exit42 ], [ %48, %51 ], [ %48, %53 ], [ %48, %54 ]
  br i1 %.not.i.i, label %56, label %lean_dec.exit27

56:                                               ; preds = %lean_dec.exit28
  %57 = load i32, ptr %27, align 4, !tbaa !4
  %58 = icmp sgt i32 %57, 1
  br i1 %58, label %59, label %61, !prof !11

59:                                               ; preds = %56
  %60 = add nsw i32 %57, -1
  store i32 %60, ptr %27, align 4, !tbaa !4
  br label %lean_dec.exit27

61:                                               ; preds = %56
  %.not.i32 = icmp eq i32 %57, 0
  br i1 %.not.i32, label %lean_dec.exit27, label %62

62:                                               ; preds = %61
  tail call void @lean_dec_ref_cold(ptr noundef nonnull %27) #7
  br label %lean_dec.exit27

lean_dec.exit27:                                  ; preds = %62, %61, %59, %lean_dec.exit28
  %63 = icmp eq i8 %55, 0
  br i1 %63, label %64, label %lean_dec.exit26

64:                                               ; preds = %lean_dec.exit27
  %65 = and i64 %24, 1
  %.not55 = icmp eq i64 %65, 0
  br i1 %.not55, label %66, label %.loopexit

66:                                               ; preds = %64
  %67 = load i32, ptr %.1.i45, align 4, !tbaa !4
  %68 = icmp sgt i32 %67, 1
  br i1 %68, label %69, label %71, !prof !11

69:                                               ; preds = %66
  %70 = add nsw i32 %67, -1
  store i32 %70, ptr %.1.i45, align 4, !tbaa !4
  br label %.loopexit

71:                                               ; preds = %66
  %.not.i34 = icmp eq i32 %67, 0
  br i1 %.not.i34, label %.loopexit, label %72

72:                                               ; preds = %71
  tail call void @lean_dec_ref_cold(ptr noundef nonnull %.1.i45) #7
  br label %.loopexit

.thread46:                                        ; preds = %lean_nat_eq.exit.thread
  %73 = load i32, ptr %.023, align 4, !tbaa !4
  %74 = icmp sgt i32 %73, 1
  br i1 %74, label %75, label %77, !prof !11

75:                                               ; preds = %.thread46
  %76 = add nsw i32 %73, -1
  store i32 %76, ptr %.023, align 4, !tbaa !4
  br label %.loopexit

77:                                               ; preds = %.thread46
  %.not.i36 = icmp eq i32 %73, 0
  br i1 %.not.i36, label %.loopexit, label %78

78:                                               ; preds = %77
  tail call void @lean_dec_ref_cold(ptr noundef nonnull %.023) #7
  br label %.loopexit

.loopexit:                                        ; preds = %lean_nat_eq.exit, %72, %71, %69, %64, %78, %77, %75
  %.2.ph = phi i8 [ 1, %75 ], [ 1, %77 ], [ 1, %78 ], [ 0, %64 ], [ 0, %69 ], [ 0, %71 ], [ 0, %72 ], [ 1, %lean_nat_eq.exit ]
  ret i8 %.2.ph
}